; Function Attrs: mustprogress uwtable
define void @_ZN10MainWindow36updateRenderingDataAccordingToActionEiP17MLRenderingAction(ptr noundef nonnull align 8 dereferenceable(1376) %0, i32 noundef %1, ptr noundef %2) local_unnamed_addr #9 align 2 {
  tail call void @_ZN10MainWindow46updateRenderingDataAccordingToActionCommonCodeEiP17MLRenderingAction(ptr noundef nonnull align 8 dereferenceable(1376) %0, i32 noundef %1, ptr noundef %2)
  %4 = getelementptr inbounds i8, ptr %0, i64 1368
  %5 = load ptr, ptr %4, align 8
  %.not.i = icmp eq ptr %5, null
  br i1 %.not.i, label %_ZNK10MainWindow3GLAEv.exit.thread, label %_ZNK10MainWindow3GLAEv.exit

_ZNK10MainWindow3GLAEv.exit:                      ; preds = %3
  %6 = getelementptr inbounds i8, ptr %5, i64 256
  %7 = load ptr, ptr %6, align 8
  %.not = icmp eq ptr %7, null
  br i1 %.not, label %_ZNK10MainWindow3GLAEv.exit.thread, label %_ZNK10MainWindow3GLAEv.exit4

_ZNK10MainWindow3GLAEv.exit4:                     ; preds = %_ZNK10MainWindow3GLAEv.exit
  tail call void @_ZN7QWidget6updateEv(ptr noundef nonnull align 8 dereferenceable(48) %7)
  br label %_ZNK10MainWindow3GLAEv.exit.thread

_ZNK10MainWindow3GLAEv.exit.thread:               ; preds = %3, %_ZNK10MainWindow3GLAEv.exit4, %_ZNK10MainWindow3GLAEv.exit
  ret void
}